; Function Attrs: mustprogress nounwind uwtable
define internal fastcc void @_ZZNK3ade6passes19ConnectCommChannelsclENS0_16TypedPassContextIJNS_4meta8CommNodeENS3_10DataObjectENS3_11CommChannelENS3_8NodeInfoENS3_20CommConsumerCallbackENS3_20CommProducerCallbackENS3_10FinalizersEEEEEN9ConnectorD2Ev(ptr nocapture noundef nonnull readonly align 8 dereferenceable(24) %0) unnamed_addr #4 align 2 personality ptr @__gxx_personality_v0 {
  %2 = load ptr, ptr %0, align 8
  %3 = getelementptr inbounds i8, ptr %0, i64 8
  %4 = load ptr, ptr %3, align 8
  %.not4.i.i.i.i = icmp eq ptr %2, %4
  br i1 %.not4.i.i.i.i, label %_ZSt8_DestroyIPSt8functionIFvvEES2_EvT_S4_RSaIT0_E.exit.i, label %.lr.ph.i.i.i.i

.lr.ph.i.i.i.i:                                   ; preds = %1, %_ZSt8_DestroyISt8functionIFvvEEEvPT_.exit.i.i.i.i
  %.05.i.i.i.i = phi ptr [ %12, %_ZSt8_DestroyISt8functionIFvvEEEvPT_.exit.i.i.i.i ], [ %2, %1 ]
  %5 = getelementptr inbounds i8, ptr %.05.i.i.i.i, i64 16
  %6 = load ptr, ptr %5, align 8
  %.not.i.i.i.i.i.i.i = icmp eq ptr %6, null
  br i1 %.not.i.i.i.i.i.i.i, label %_ZSt8_DestroyISt8functionIFvvEEEvPT_.exit.i.i.i.i, label %7

7:                                                ; preds = %.lr.ph.i.i.i.i
  %8 = invoke noundef zeroext i1 %6(ptr noundef nonnull align 8 dereferenceable(16) %.05.i.i.i.i, ptr noundef nonnull align 8 dereferenceable(16) %.05.i.i.i.i, i32 noundef 3)
          to label %_ZSt8_DestroyISt8functionIFvvEEEvPT_.exit.i.i.i.i unwind label %9

9:                                                ; preds = %7
  %10 = landingpad { ptr, i32 }
          catch ptr null
  %11 = extractvalue { ptr, i32 } %10, 0
  tail call void @__clang_call_terminate(ptr %11) #23
  unreachable

_ZSt8_DestroyISt8functionIFvvEEEvPT_.exit.i.i.i.i: ; preds = %7, %.lr.ph.i.i.i.i
  %12 = getelementptr inbounds i8, ptr %.05.i.i.i.i, i64 32
  %.not.i.i.i.i = icmp eq ptr %12, %4
  br i1 %.not.i.i.i.i, label %_ZSt8_DestroyIPSt8functionIFvvEES2_EvT_S4_RSaIT0_E.exitthread-pre-split.i, label %.lr.ph.i.i.i.i, !llvm.loop !213

_ZSt8_DestroyIPSt8functionIFvvEES2_EvT_S4_RSaIT0_E.exitthread-pre-split.i: ; preds = %_ZSt8_DestroyISt8functionIFvvEEEvPT_.exit.i.i.i.i
  %.pr.i = load ptr, ptr %0, align 8
  br label %_ZSt8_DestroyIPSt8functionIFvvEES2_EvT_S4_RSaIT0_E.exit.i

_ZSt8_DestroyIPSt8functionIFvvEES2_EvT_S4_RSaIT0_E.exit.i: ; preds = %_ZSt8_DestroyIPSt8functionIFvvEES2_EvT_S4_RSaIT0_E.exitthread-pre-split.i, %1
  %13 = phi ptr [ %.pr.i, %_ZSt8_DestroyIPSt8functionIFvvEES2_EvT_S4_RSaIT0_E.exitthread-pre-split.i ], [ %2, %1 ]
  %.not.i.i.i = icmp eq ptr %13, null
  br i1 %.not.i.i.i, label %_ZNSt6vectorISt8functionIFvvEESaIS2_EED2Ev.exit, label %14

14:                                               ; preds = %_ZSt8_DestroyIPSt8functionIFvvEES2_EvT_S4_RSaIT0_E.exit.i
  tail call void @_ZdlPv(ptr noundef nonnull %13) #21
  br label %_ZNSt6vectorISt8functionIFvvEESaIS2_EED2Ev.exit

_ZNSt6vectorISt8functionIFvvEESaIS2_EED2Ev.exit:  ; preds = %_ZSt8_DestroyIPSt8functionIFvvEES2_EvT_S4_RSaIT0_E.exit.i, %14
  ret void
}